; Function Attrs: mustprogress uwtable
define hidden noundef zeroext i1 @_ZN7datalog30finite_product_relation_plugin16can_be_convertedERKNS_13relation_baseE(ptr nocapture noundef nonnull readonly align 8 dereferenceable(112) %this, ptr nocapture noundef nonnull readonly align 8 dereferenceable(28) %r) local_unnamed_addr #3 align 2 personality ptr @__gxx_personality_v0 {
entry:
  %ref.tmp = alloca %"class.datalog::relation_signature", align 8
  %m_plugin.i = getelementptr inbounds i8, ptr %r, i64 8
  %0 = load ptr, ptr %m_plugin.i, align 8
  %m_inner_plugin.i = getelementptr inbounds i8, ptr %this, i64 40
  %1 = load ptr, ptr %m_inner_plugin.i, align 8
  %cmp = icmp eq ptr %0, %1
  br i1 %cmp, label %return, label %if.end

if.end:                                           ; preds = %entry
  %m_special_type.i.i = getelementptr inbounds i8, ptr %0, i64 32
  %2 = load i32, ptr %m_special_type.i.i, align 8
  %cmp.i.i = icmp eq i32 %2, 1
  br i1 %cmp.i.i, label %if.then4, label %return

if.then4:                                         ; preds = %if.end
  store ptr null, ptr %ref.tmp, align 8
  %vtable = load ptr, ptr %1, align 8
  %vfn = getelementptr inbounds i8, ptr %vtable, i64 24
  %3 = load ptr, ptr %vfn, align 8
  %call6 = invoke noundef zeroext i1 %3(ptr noundef nonnull align 8 dereferenceable(32) %1, ptr noundef nonnull align 8 dereferenceable(8) %ref.tmp)
          to label %invoke.cont unwind label %lpad

invoke.cont:                                      ; preds = %if.then4
  %4 = load ptr, ptr %ref.tmp, align 8
  %tobool.not.i.i.i.i.i = icmp eq ptr %4, null
  br i1 %tobool.not.i.i.i.i.i, label %return, label %if.then.i.i.i.i.i

if.then.i.i.i.i.i:                                ; preds = %invoke.cont
  %add.ptr.i.i.i.i.i.i = getelementptr inbounds i8, ptr %4, i64 -8
  invoke void @_ZN6memory10deallocateEPv(ptr noundef nonnull %add.ptr.i.i.i.i.i.i)
          to label %return unwind label %terminate.lpad.i.i.i.i

terminate.lpad.i.i.i.i:                           ; preds = %if.then.i.i.i.i.i
  %5 = landingpad { ptr, i32 }
          catch ptr null
  %6 = extractvalue { ptr, i32 } %5, 0
  call void @__clang_call_terminate(ptr %6) #22
  unreachable

lpad:                                             ; preds = %if.then4
  %7 = landingpad { ptr, i32 }
          cleanup
  call void @_ZN7datalog18relation_signatureD2Ev(ptr noundef nonnull align 8 dereferenceable(8) %ref.tmp) #20
  resume { ptr, i32 } %7

return:                                           ; preds = %if.then.i.i.i.i.i, %invoke.cont, %if.end, %entry
  %retval.0 = phi i1 [ true, %entry ], [ false, %if.end ], [ %call6, %invoke.cont ], [ %call6, %if.then.i.i.i.i.i ]
  ret i1 %retval.0
}